; Function Attrs: mustprogress uwtable
define hidden void @_ZN7datalog6matrix11display_rowERSoRK6vectorI8rationalLb1EjERKS3_b(ptr noundef nonnull align 8 dereferenceable(8) %out, ptr nocapture noundef nonnull readonly align 8 dereferenceable(8) %row, ptr noundef nonnull align 8 dereferenceable(32) %b, i1 noundef zeroext %is_eq) local_unnamed_addr #3 align 2 personality ptr @__gxx_personality_v0 {
entry:
  %ref.tmp.i6 = alloca %"class.std::__cxx11::basic_string", align 8
  %ref.tmp.i = alloca %"class.std::__cxx11::basic_string", align 8
  %ref.tmp = alloca %class.rational, align 8
  br label %for.cond

for.cond:                                         ; preds = %_ZlsRSoRK8rational.exit, %entry
  %indvars.iv = phi i64 [ %indvars.iv.next, %_ZlsRSoRK8rational.exit ], [ 0, %entry ]
  %0 = load ptr, ptr %row, align 8
  %cmp.i = icmp eq ptr %0, null
  br i1 %cmp.i, label %_ZNK6vectorI8rationalLb1EjE4sizeEv.exit, label %if.end.i

if.end.i:                                         ; preds = %for.cond
  %arrayidx.i = getelementptr inbounds i8, ptr %0, i64 -4
  %1 = load i32, ptr %arrayidx.i, align 4
  br label %_ZNK6vectorI8rationalLb1EjE4sizeEv.exit

_ZNK6vectorI8rationalLb1EjE4sizeEv.exit:          ; preds = %for.cond, %if.end.i
  %retval.0.i = phi i32 [ %1, %if.end.i ], [ 0, %for.cond ]
  %2 = zext i32 %retval.0.i to i64
  %cmp = icmp ult i64 %indvars.iv, %2
  br i1 %cmp, label %for.body, label %for.end

for.body:                                         ; preds = %_ZNK6vectorI8rationalLb1EjE4sizeEv.exit
  %arrayidx.i5 = getelementptr inbounds %class.rational, ptr %0, i64 %indvars.iv
  call void @llvm.lifetime.start.p0(i64 32, ptr nonnull %ref.tmp.i)
  %3 = load ptr, ptr @_ZN8rational13g_mpq_managerE, align 8
  call void @_ZNK11mpq_managerILb1EE9to_stringB5cxx11ERK3mpq(ptr nonnull sret(%"class.std::__cxx11::basic_string") align 8 %ref.tmp.i, ptr noundef nonnull align 8 dereferenceable(728) %3, ptr noundef nonnull align 8 dereferenceable(32) %arrayidx.i5)
  %call1.i = invoke noundef nonnull align 8 dereferenceable(8) ptr @_ZStlsIcSt11char_traitsIcESaIcEERSt13basic_ostreamIT_T0_ES7_RKNSt7__cxx1112basic_stringIS4_S5_T1_EE(ptr noundef nonnull align 8 dereferenceable(8) %out, ptr noundef nonnull align 8 dereferenceable(32) %ref.tmp.i)
          to label %_ZlsRSoRK8rational.exit unwind label %lpad.i

common.resume:                                    ; preds = %lpad.body, %lpad.i
  %common.resume.op = phi { ptr, i32 } [ %4, %lpad.i ], [ %eh.lpad-body, %lpad.body ]
  resume { ptr, i32 } %common.resume.op

lpad.i:                                           ; preds = %for.body
  %4 = landingpad { ptr, i32 }
          cleanup
  call void @_ZNSt7__cxx1112basic_stringIcSt11char_traitsIcESaIcEED1Ev(ptr noundef nonnull align 8 dereferenceable(32) %ref.tmp.i) #14
  br label %common.resume

_ZlsRSoRK8rational.exit:                          ; preds = %for.body
  call void @_ZNSt7__cxx1112basic_stringIcSt11char_traitsIcESaIcEED1Ev(ptr noundef nonnull align 8 dereferenceable(32) %ref.tmp.i) #14
  call void @llvm.lifetime.end.p0(i64 32, ptr nonnull %ref.tmp.i)
  %call3 = call noundef nonnull align 8 dereferenceable(8) ptr @_ZStlsISt11char_traitsIcEERSt13basic_ostreamIcT_ES5_PKc(ptr noundef nonnull align 8 dereferenceable(8) %call1.i, ptr noundef nonnull @.str.5)
  %indvars.iv.next = add nuw nsw i64 %indvars.iv, 1
  br label %for.cond, !llvm.loop !6

for.end:                                          ; preds = %_ZNK6vectorI8rationalLb1EjE4sizeEv.exit
  %cond = select i1 %is_eq, ptr @.str.6, ptr @.str.7
  %call4 = call noundef nonnull align 8 dereferenceable(8) ptr @_ZStlsISt11char_traitsIcEERSt13basic_ostreamIcT_ES5_PKc(ptr noundef nonnull align 8 dereferenceable(8) %out, ptr noundef nonnull %cond)
  call void @_ZngRK8rational(ptr nonnull sret(%class.rational) align 8 %ref.tmp, ptr noundef nonnull align 8 dereferenceable(32) %b)
  call void @llvm.lifetime.start.p0(i64 32, ptr nonnull %ref.tmp.i6)
  %5 = load ptr, ptr @_ZN8rational13g_mpq_managerE, align 8
  invoke void @_ZNK11mpq_managerILb1EE9to_stringB5cxx11ERK3mpq(ptr nonnull sret(%"class.std::__cxx11::basic_string") align 8 %ref.tmp.i6, ptr noundef nonnull align 8 dereferenceable(728) %5, ptr noundef nonnull align 8 dereferenceable(32) %ref.tmp)
          to label %.noexc unwind label %lpad

.noexc:                                           ; preds = %for.end
  %call1.i7 = invoke noundef nonnull align 8 dereferenceable(8) ptr @_ZStlsIcSt11char_traitsIcESaIcEERSt13basic_ostreamIT_T0_ES7_RKNSt7__cxx1112basic_stringIS4_S5_T1_EE(ptr noundef nonnull align 8 dereferenceable(8) %call4, ptr noundef nonnull align 8 dereferenceable(32) %ref.tmp.i6)
          to label %invoke.cont unwind label %lpad.i8

lpad.i8:                                          ; preds = %.noexc
  %6 = landingpad { ptr, i32 }
          cleanup
  call void @_ZNSt7__cxx1112basic_stringIcSt11char_traitsIcESaIcEED1Ev(ptr noundef nonnull align 8 dereferenceable(32) %ref.tmp.i6) #14
  br label %lpad.body

invoke.cont:                                      ; preds = %.noexc
  call void @_ZNSt7__cxx1112basic_stringIcSt11char_traitsIcESaIcEED1Ev(ptr noundef nonnull align 8 dereferenceable(32) %ref.tmp.i6) #14
  call void @llvm.lifetime.end.p0(i64 32, ptr nonnull %ref.tmp.i6)
  %call7 = invoke noundef nonnull align 8 dereferenceable(8) ptr @_ZStlsISt11char_traitsIcEERSt13basic_ostreamIcT_ES5_PKc(ptr noundef nonnull align 8 dereferenceable(8) %call1.i7, ptr noundef nonnull @.str.8)
          to label %invoke.cont6 unwind label %lpad

invoke.cont6:                                     ; preds = %invoke.cont
  %7 = load ptr, ptr @_ZN8rational13g_mpq_managerE, align 8
  invoke void @_ZN11mpz_managerILb1EE3delEPS0_R3mpz(ptr noundef %7, ptr noundef nonnull align 8 dereferenceable(16) %ref.tmp)
          to label %.noexc.i unwind label %terminate.lpad.i

.noexc.i:                                         ; preds = %invoke.cont6
  %m_den.i.i = getelementptr inbounds i8, ptr %ref.tmp, i64 16
  invoke void @_ZN11mpz_managerILb1EE3delEPS0_R3mpz(ptr noundef %7, ptr noundef nonnull align 8 dereferenceable(16) %m_den.i.i)
          to label %_ZN8rationalD2Ev.exit unwind label %terminate.lpad.i

terminate.lpad.i:                                 ; preds = %.noexc.i, %invoke.cont6
  %8 = landingpad { ptr, i32 }
          catch ptr null
  %9 = extractvalue { ptr, i32 } %8, 0
  call void @__clang_call_terminate(ptr %9) #15
  unreachable

_ZN8rationalD2Ev.exit:                            ; preds = %.noexc.i
  ret void

lpad:                                             ; preds = %for.end, %invoke.cont
  %10 = landingpad { ptr, i32 }
          cleanup
  br label %lpad.body

lpad.body:                                        ; preds = %lpad.i8, %lpad
  %eh.lpad-body = phi { ptr, i32 } [ %10, %lpad ], [ %6, %lpad.i8 ]
  call void @_ZN8rationalD2Ev(ptr noundef nonnull align 8 dereferenceable(32) %ref.tmp) #14
  br label %common.resume
}